target datalayout = "e-m:e-p270:32:32-p271:32:32-p272:64:64-i64:64-i128:128-f80:128-n8:16:32:64-S128"
target triple = "x86_64-pc-linux-gnu"

%struct.StatusPrinter = type { %struct.Status, ptr, i32, i32, i32, i32, i64, i64, double, i32, i64, i32, i64, i32, %struct.LinePrinter, ptr, ptr, %"struct.StatusPrinter::SlidingRateInfo" }
%struct.Status = type { ptr }
%struct.LinePrinter = type { i8, i8, i8, i8, %"class.std::__cxx11::basic_string", i32, %"class.std::__cxx11::basic_string" }
%"class.std::__cxx11::basic_string" = type { %"struct.std::__cxx11::basic_string<char>::_Alloc_hider", i64, %union.anon }
%"struct.std::__cxx11::basic_string<char>::_Alloc_hider" = type { ptr }
%union.anon = type { i64, [8 x i8] }
%"struct.StatusPrinter::SlidingRateInfo" = type <{ double, i64, %"class.std::queue", i32, [4 x i8] }>
%"class.std::queue" = type { %"class.std::deque" }
%"class.std::deque" = type { %"class.std::_Deque_base" }
%"class.std::_Deque_base" = type { %"struct.std::_Deque_base<double, std::allocator<double>>::_Deque_impl" }
%"struct.std::_Deque_base<double, std::allocator<double>>::_Deque_impl" = type { %"struct.std::_Deque_base<double, std::allocator<double>>::_Deque_impl_data" }
%"struct.std::_Deque_base<double, std::allocator<double>>::_Deque_impl_data" = type { ptr, i64, %"struct.std::_Deque_iterator", %"struct.std::_Deque_iterator" }
%"struct.std::_Deque_iterator" = type { ptr, ptr, ptr, ptr }

; Function Attrs: mustprogress nounwind uwtable
define linkonce_odr dso_local noundef zeroext i1 @_ZNK11LinePrinter17is_smart_terminalEv(ptr noundef nonnull align 8 dereferenceable(80) %0) #5 comdat align 2 {
  %2 = alloca ptr, align 8
  store ptr %0, ptr %2, align 8, !tbaa !63
  %3 = load ptr, ptr %2, align 8
  %4 = getelementptr inbounds nuw %struct.LinePrinter, ptr %3, i32 0, i32 0
  %5 = load i8, ptr %4, align 8, !tbaa !68, !range !66, !noundef !67
  %6 = trunc i8 %5 to i1
  ret i1 %6
}

; Function Attrs: mustprogress uwtable
define dso_local void @_ZN13StatusPrinter16BuildEdgeStartedEPK4Edgel(ptr noundef nonnull align 8 dereferenceable(296) %0, ptr noundef %1, i64 noundef %2) unnamed_addr #0 align 2 {
  %4 = alloca ptr, align 8
  %5 = alloca ptr, align 8
  %6 = alloca i64, align 8
  store ptr %0, ptr %4, align 8, !tbaa !9
  store ptr %1, ptr %5, align 8, !tbaa !69
  store i64 %2, ptr %6, align 8, !tbaa !83
  %7 = load ptr, ptr %4, align 8
  %8 = getelementptr inbounds nuw %struct.StatusPrinter, ptr %7, i32 0, i32 2
  %9 = load i32, ptr %8, align 8, !tbaa !13
  %10 = add nsw i32 %9, 1
  store i32 %10, ptr %8, align 8, !tbaa !13
  %11 = getelementptr inbounds nuw %struct.StatusPrinter, ptr %7, i32 0, i32 5
  %12 = load i32, ptr %11, align 4, !tbaa !38
  %13 = add nsw i32 %12, 1
  store i32 %13, ptr %11, align 4, !tbaa !38
  %14 = load i64, ptr %6, align 8, !tbaa !83
  %15 = getelementptr inbounds nuw %struct.StatusPrinter, ptr %7, i32 0, i32 6
  store i64 %14, ptr %15, align 8, !tbaa !39
  %16 = load ptr, ptr %5, align 8, !tbaa !69
  %17 = call noundef zeroext i1 @_ZNK4Edge11use_consoleEv(ptr noundef nonnull align 8 dereferenceable(168) %16)
  br i1 %17, label %21, label %18

18:                                               ; preds = %3
  %19 = getelementptr inbounds nuw %struct.StatusPrinter, ptr %7, i32 0, i32 14
  %20 = call noundef zeroext i1 @_ZNK11LinePrinter17is_smart_terminalEv(ptr noundef nonnull align 8 dereferenceable(80) %19)
  br i1 %20, label %21, label %24

21:                                               ; preds = %18, %3
  %22 = load ptr, ptr %5, align 8, !tbaa !69
  %23 = load i64, ptr %6, align 8, !tbaa !83
  call void @_ZN13StatusPrinter11PrintStatusEPK4Edgel(ptr noundef nonnull align 8 dereferenceable(296) %7, ptr noundef %22, i64 noundef %23)
  br label %24

24:                                               ; preds = %21, %18
  %25 = load ptr, ptr %5, align 8, !tbaa !69
  %26 = call noundef zeroext i1 @_ZNK4Edge11use_consoleEv(ptr noundef nonnull align 8 dereferenceable(168) %25)
  br i1 %26, label %27, label %29

27:                                               ; preds = %24
  %28 = getelementptr inbounds nuw %struct.StatusPrinter, ptr %7, i32 0, i32 14
  call void @_ZN11LinePrinter16SetConsoleLockedEb(ptr noundef nonnull align 8 dereferenceable(80) %28, i1 noundef zeroext true)
  br label %29

29:                                               ; preds = %27, %24
  ret void
}