; Function Attrs: mustprogress uwtable
define dso_local void @_ZN13StatusPrinter16BuildEdgeStartedEPK4Edgel(ptr noundef nonnull align 8 dereferenceable(296) initializes((32, 40)) %0, ptr noundef nonnull %1, i64 noundef %2) unnamed_addr #0 align 2 {
  %4 = getelementptr inbounds nuw i8, ptr %0, i64 16
  %5 = load i32, ptr %4, align 8, !tbaa !65
  %6 = add nsw i32 %5, 1
  store i32 %6, ptr %4, align 8, !tbaa !65
  %7 = getelementptr inbounds nuw i8, ptr %0, i64 28
  %8 = load i32, ptr %7, align 4, !tbaa !66
  %9 = add nsw i32 %8, 1
  store i32 %9, ptr %7, align 4, !tbaa !66
  %10 = getelementptr inbounds nuw i8, ptr %0, i64 32
  store i64 %2, ptr %10, align 8, !tbaa !67
  %11 = tail call noundef zeroext i1 @_ZNK4Edge11use_consoleEv(ptr noundef nonnull align 8 dereferenceable(168) %1)
  br i1 %11, label %16, label %12

12:                                               ; preds = %3
  %13 = getelementptr inbounds nuw i8, ptr %0, i64 96
  %14 = load i8, ptr %13, align 8, !tbaa !46, !range !68, !noundef !69
  %15 = trunc nuw i8 %14 to i1
  br i1 %15, label %16, label %17

16:                                               ; preds = %12, %3
  tail call void @_ZN13StatusPrinter11PrintStatusEPK4Edgel(ptr noundef nonnull align 8 dereferenceable(296) %0, ptr noundef nonnull %1, i64 noundef %2)
  br label %17

17:                                               ; preds = %16, %12
  %18 = tail call noundef zeroext i1 @_ZNK4Edge11use_consoleEv(ptr noundef nonnull align 8 dereferenceable(168) %1)
  br i1 %18, label %19, label %21

19:                                               ; preds = %17
  %20 = getelementptr inbounds nuw i8, ptr %0, i64 96
  tail call void @_ZN11LinePrinter16SetConsoleLockedEb(ptr noundef nonnull align 8 dereferenceable(80) %20, i1 noundef zeroext true)
  br label %21

21:                                               ; preds = %19, %17
  ret void
}